target datalayout = "e-m:e-p270:32:32-p271:32:32-p272:64:64-i64:64-i128:128-f80:128-n8:16:32:64-S128"
target triple = "x86_64-pc-linux-gnu"

%struct._tocEntry = type { ptr, ptr, %struct.CatalogId, i32, i32, i8, ptr, ptr, ptr, ptr, i8, ptr, ptr, ptr, ptr, ptr, ptr, i32, ptr, ptr, ptr, i64, i32, i8, ptr, ptr, i32, ptr, i32, ptr, i32 }
%struct.CatalogId = type { i32, i32 }

@.str.226 = private unnamed_addr constant [23 x i8] c"finished item %d %s %s\00", align 1
@.str.227 = private unnamed_addr constant [36 x i8] c"worker process failed: exit code %d\00", align 1

; Function Attrs: nounwind uwtable
define internal void @mark_dump_job_done(ptr noundef %0, ptr noundef %1, i32 noundef %2, ptr noundef %3) #0 {
  %5 = alloca ptr, align 8
  %6 = alloca ptr, align 8
  %7 = alloca i32, align 4
  %8 = alloca ptr, align 8
  store ptr %0, ptr %5, align 8
  store ptr %1, ptr %6, align 8
  store i32 %2, ptr %7, align 4
  store ptr %3, ptr %8, align 8
  %9 = load ptr, ptr %6, align 8
  %10 = getelementptr inbounds nuw %struct._tocEntry, ptr %9, i32 0, i32 3
  %11 = load i32, ptr %10, align 8
  %12 = load ptr, ptr %6, align 8
  %13 = getelementptr inbounds nuw %struct._tocEntry, ptr %12, i32 0, i32 12
  %14 = load ptr, ptr %13, align 8
  %15 = load ptr, ptr %6, align 8
  %16 = getelementptr inbounds nuw %struct._tocEntry, ptr %15, i32 0, i32 6
  %17 = load ptr, ptr %16, align 8
  call void (i32, i32, ptr, ...) @pg_log_generic(i32 noundef 2, i32 noundef 0, ptr noundef @.str.226, i32 noundef %11, ptr noundef %14, ptr noundef %17)
  %18 = load i32, ptr %7, align 4
  %19 = icmp ne i32 %18, 0
  br i1 %19, label %20, label %24

20:                                               ; preds = %4
  br label %21

21:                                               ; preds = %20
  %22 = load i32, ptr %7, align 4
  call void (i32, i32, ptr, ...) @pg_log_generic(i32 noundef 4, i32 noundef 0, ptr noundef @.str.227, i32 noundef %22)
  call void @exit_nicely(i32 noundef 1) #12
  unreachable

23:                                               ; No predecessors!
  br label %24

24:                                               ; preds = %23, %4
  ret void
}