; Function Attrs: nounwind uwtable
define internal void @mark_dump_job_done(ptr readnone captures(none) %0, ptr noundef readonly captures(none) %1, i32 noundef %2, ptr readnone captures(none) %3) #0 {
  %5 = getelementptr inbounds nuw i8, ptr %1, i64 24
  %6 = load i32, ptr %5, align 8
  %7 = getelementptr inbounds nuw i8, ptr %1, i64 88
  %8 = load ptr, ptr %7, align 8
  %9 = getelementptr inbounds nuw i8, ptr %1, i64 40
  %10 = load ptr, ptr %9, align 8
  tail call void (i32, i32, ptr, ...) @pg_log_generic(i32 noundef 2, i32 noundef 0, ptr noundef nonnull @.str.226, i32 noundef %6, ptr noundef %8, ptr noundef %10) #22
  %.not = icmp eq i32 %2, 0
  br i1 %.not, label %12, label %11

11:                                               ; preds = %4
  tail call void (i32, i32, ptr, ...) @pg_log_generic(i32 noundef 4, i32 noundef 0, ptr noundef nonnull @.str.227, i32 noundef %2) #22
  tail call void @exit_nicely(i32 noundef 1) #23
  unreachable

12:                                               ; preds = %4
  ret void
}